ccopy_reg
_reconstructor
p1
(csklearn.pipeline
Pipeline
p2
c__builtin__
object
p3
NtRp4
(dp5
S'_sklearn_version'
p6
S'0.18.1'
p7
sS'steps'
p8
(lp9
(S'clf'
p10
g1
(csklearn.linear_model.stochastic_gradient
SGDClassifier
p11
g3
NtRp12
(dp13
S't_'
p14
F131
sS'n_jobs'
p15
I1
sS'shuffle'
p16
I01
sS'verbose'
p17
I0
sS'classes_'
p18
cnumpy.core.multiarray
_reconstruct
p19
(cnumpy
ndarray
p20
(I0
tS'b'
tRp21
(I1
(I2
tcnumpy
dtype
p22
(S'S6'
I0
I1
tRp23
(I3
S'|'
NNNI6
I1
I0
tbI00
S'U neckV Neck'
tbsS'class_weight'
p24
NsS'fit_intercept'
p25
I01
sS'penalty'
p26
S'l2'
p27
sS'random_state'
p28
I42
sg6
g7
sS'loss_function'
p29
csklearn.linear_model.sgd_fast
Hinge
p30
(F1
tRp31
sS'C'
F1
sS'n_iter'
p32
I5
sS'epsilon'
p33
F0.10000000000000001
sS'learning_rate'
p34
S'optimal'
p35
sS'coef_'
p36
g19
(g20
(I0
tS'b'
tRp37
(I1
(I1
I5
tg22
(S'f8'
I0
I1
tRp38
(I3
S'<'
NNNI-1
I-1
I0
tbI00
S"\xd1!\xbac\xbee\x04@\xcf4\xf3^\xda\x14\xa0\xbf\xdd\xe6'\xe6)X\x0b@\xad\x1a\xed\xaa\xb9\xdc\xee\xbf,p#\xa8Iv \xc0"
tbsS'alpha'
p39
F0.001
sS'intercept_'
p40
g19
(g20
(I0
tS'b'
tRp41
(I1
(I1
tg38
I00
S'I\xabEE\xe8m\n\xc0'
tbsS'_expanded_class_weight'
p42
g19
(g20
(I0
tS'b'
tRp43
(I1
(I2
tg38
I00
S'\x00\x00\x00\x00\x00\x00\xf0?\x00\x00\x00\x00\x00\x00\xf0?'
tbsS'warm_start'
p44
I00
sS'loss'
p45
S'hinge'
p46
sS'eta0'
p47
F0
sS'l1_ratio'
p48
F0.14999999999999999
sS'average'
p49
I00
sS'power_t'
p50
F0.5
sbtp51
asb.